target datalayout = "e-m:e-p270:32:32-p271:32:32-p272:64:64-i64:64-i128:128-f80:128-n8:16:32:64-S128"
target triple = "x86_64-pc-linux-gnu"

%struct.lxb_html_tokenizer_error_t = type { ptr, i32 }

; Function Attrs: nounwind uwtable
define hidden ptr @lxb_html_tokenizer_error_add(ptr noundef %0, ptr noundef %1, i32 noundef %2) #0 {
  %4 = alloca ptr, align 8
  %5 = alloca ptr, align 8
  %6 = alloca ptr, align 8
  %7 = alloca i32, align 4
  %8 = alloca ptr, align 8
  store ptr %0, ptr %5, align 8
  store ptr %1, ptr %6, align 8
  store i32 %2, ptr %7, align 4
  %9 = load ptr, ptr %5, align 8
  %10 = icmp eq ptr %9, null
  br i1 %10, label %11, label %12

11:                                               ; preds = %3
  store ptr null, ptr %4, align 8
  br label %26

12:                                               ; preds = %3
  %13 = load ptr, ptr %5, align 8
  %14 = call ptr @lexbor_array_obj_push(ptr noundef %13)
  store ptr %14, ptr %8, align 8
  %15 = load ptr, ptr %8, align 8
  %16 = icmp eq ptr %15, null
  br i1 %16, label %17, label %18

17:                                               ; preds = %12
  store ptr null, ptr %4, align 8
  br label %26

18:                                               ; preds = %12
  %19 = load i32, ptr %7, align 4
  %20 = load ptr, ptr %8, align 8
  %21 = getelementptr inbounds %struct.lxb_html_tokenizer_error_t, ptr %20, i32 0, i32 1
  store i32 %19, ptr %21, align 8
  %22 = load ptr, ptr %6, align 8
  %23 = load ptr, ptr %8, align 8
  %24 = getelementptr inbounds %struct.lxb_html_tokenizer_error_t, ptr %23, i32 0, i32 0
  store ptr %22, ptr %24, align 8
  %25 = load ptr, ptr %8, align 8
  store ptr %25, ptr %4, align 8
  br label %26

26:                                               ; preds = %18, %17, %11
  %27 = load ptr, ptr %4, align 8
  ret ptr %27
}

declare ptr @lexbor_array_obj_push(ptr noundef) #1


!llvm.module.flags = !{!0, !1, !2, !3}

!0 = !{i32 1, !"wchar_size", i32 4}
!1 = !{i32 8, !"PIC Level", i32 2}
!2 = !{i32 7, !"uwtable", i32 2}
!3 = !{i32 7, !"frame-pointer", i32 2}
