; ModuleID = 'bench/php/original/error.ll'
source_filename = "bench/php/original/error.ll"
target datalayout = "e-m:e-p270:32:32-p271:32:32-p272:64:64-i64:64-i128:128-f80:128-n8:16:32:64-S128"
target triple = "x86_64-pc-linux-gnu"

; Function Attrs: nounwind uwtable
define hidden ptr @lxb_html_tokenizer_error_add(ptr noundef %0, ptr noundef %1, i32 noundef %2) local_unnamed_addr #0 {
  %4 = icmp eq ptr %0, null
  br i1 %4, label %10, label %5

5:                                                ; preds = %3
  %6 = tail call ptr @lexbor_array_obj_push(ptr noundef nonnull %0) #2
  %7 = icmp eq ptr %6, null
  br i1 %7, label %10, label %8

8:                                                ; preds = %5
  %9 = getelementptr inbounds i8, ptr %6, i64 8
  store i32 %2, ptr %9, align 8
  store ptr %1, ptr %6, align 8
  br label %10

10:                                               ; preds = %5, %3, %8
  %.0 = phi ptr [ %6, %8 ], [ null, %3 ], [ null, %5 ]
  ret ptr %.0
}

declare ptr @lexbor_array_obj_push(ptr noundef) local_unnamed_addr #1


!llvm.module.flags = !{!0, !1, !2, !3}

!0 = !{i32 1, !"wchar_size", i32 4}
!1 = !{i32 8, !"PIC Level", i32 2}
!2 = !{i32 7, !"uwtable", i32 2}
!3 = !{i32 7, !"frame-pointer", i32 2}
